; Function Attrs: nounwind uwtable
define i32 @EVP_DigestFinal(ptr noundef %0, ptr noundef %1, ptr noundef captures(address_is_null) %2) local_unnamed_addr #0 {
  %4 = tail call i32 @EVP_DigestFinal_ex(ptr noundef %0, ptr noundef %1, ptr noundef %2)
  %5 = icmp eq ptr %0, null
  br i1 %5, label %EVP_MD_CTX_reset.exit, label %6

6:                                                ; preds = %3
  %7 = tail call i32 @EVP_MD_CTX_test_flags(ptr noundef nonnull %0, i32 noundef 1024) #8
  %.not.i.i = icmp eq i32 %7, 0
  br i1 %.not.i.i, label %8, label %11

8:                                                ; preds = %6
  %9 = getelementptr inbounds nuw i8, ptr %0, i64 40
  %10 = load ptr, ptr %9, align 8, !tbaa !26
  tail call void @EVP_PKEY_CTX_free(ptr noundef %10) #8
  store ptr null, ptr %9, align 8, !tbaa !26
  br label %11

11:                                               ; preds = %8, %6
  tail call void @evp_md_ctx_clear_digest(ptr noundef nonnull %0, i32 noundef 0, i32 noundef 0)
  tail call void @OPENSSL_cleanse(ptr noundef nonnull %0, i64 noundef 72) #8
  br label %EVP_MD_CTX_reset.exit

EVP_MD_CTX_reset.exit:                            ; preds = %3, %11
  ret i32 %4
}